Certificate:
    Data:
        Version: 3 (0x2)
        Serial Number: 8 (0x8)
    Signature Algorithm: sha256WithRSAEncryption
        Issuer: CN=openshift-signer@1551894346
        Validity
            Not Before: Mar  7 00:33:17 2019 GMT
            Not After : Mar  6 00:33:17 2020 GMT
        Subject: C=IT, ST=Rome, L=Rome, O=ACME Corp, CN=nc-server.myproject.svc/emailAddress=nc-server@acme.com
        Subject Public Key Info:
            Public Key Algorithm: rsaEncryption
                Public-Key: (2048 bit)
                Modulus:
                    00:d0:d3:5c:f2:08:0f:15:11:40:9e:d0:3f:0b:69:
                    a1:58:49:c0:4e:9f:db:1d:4b:2e:26:f8:99:4a:3f:
                    5f:5e:f0:2b:b0:e3:2b:41:36:49:81:ed:61:ac:b2:
                    70:45:a2:4f:11:ec:76:ac:64:fa:91:5e:ab:8c:0d:
                    03:5c:f6:cd:05:3e:82:59:86:00:a1:f6:23:c5:a0:
                    1e:6a:07:dd:65:56:8a:56:20:81:f4:29:04:a7:9b:
                    fb:fb:67:e8:ad:52:7e:13:dc:44:c8:27:9f:05:8f:
                    1d:20:8c:0b:ec:05:cc:4b:93:2d:e0:6d:ae:44:d9:
                    d9:a8:a3:59:5f:da:0f:02:fa:3b:fa:03:2f:59:a0:
                    67:27:67:b0:c6:93:0d:72:6a:51:41:fb:2f:d6:4c:
                    d1:f5:8e:b9:f9:8b:0b:3b:e5:e7:22:80:82:4c:d2:
                    22:03:63:e0:45:cb:65:6a:a6:ae:36:50:2d:00:50:
                    7b:85:0a:4e:79:15:d9:79:0d:bf:6b:c6:34:a5:15:
                    8c:39:5b:af:3f:d8:ac:b0:b0:81:86:3d:7b:60:04:
                    24:44:7e:7e:db:f0:8a:ad:78:85:d1:1c:bd:72:5c:
                    3a:84:44:69:b8:8f:c5:93:69:55:96:aa:f9:f2:ee:
                    63:8d:c8:9b:38:d1:0c:c9:42:45:dc:b1:a3:65:4a:
                    da:83
                Exponent: 65537 (0x10001)
        X509v3 extensions:
            X509v3 Subject Key Identifier: 
                36:10:4E:08:86:89:B4:CB:F4:3F:79:3D:61:D1:06:9A:87:D0:BC:98
            X509v3 Authority Key Identifier: 
                DirName:/CN=openshift-signer@1551894346
                serial:01

            X509v3 Basic Constraints: 
                CA:FALSE
            X509v3 Key Usage: 
                Digital Signature, Key Encipherment
    Signature Algorithm: sha256WithRSAEncryption
         51:63:d8:5d:d8:fe:55:11:e2:02:f7:f8:6b:d2:0f:0f:9e:5d:
         48:61:3f:87:18:07:d7:25:e9:b5:4f:aa:3c:1d:8c:85:cd:6e:
         3b:53:a6:a9:41:9c:f9:d6:d1:9a:12:32:70:9c:ac:31:8c:b8:
         e6:07:10:cb:c3:21:70:06:ca:32:a3:1e:07:19:a9:57:61:be:
         02:f7:44:f8:77:c0:7d:01:d5:7f:b1:82:1c:c1:7d:fe:6e:01:
         04:3e:65:1d:df:73:74:0c:fe:de:5f:7c:65:5b:8f:fa:42:af:
         46:6c:59:05:a7:06:24:b8:06:d9:56:0d:59:34:c0:f7:52:83:
         af:69:0d:fe:8e:f5:f7:c9:0a:6a:b1:47:49:09:a0:d6:8e:d5:
         ca:4f:17:f2:10:87:78:25:1c:21:a1:b8:dd:9d:ed:aa:5c:20:
         ac:52:d0:52:0d:13:06:c2:b4:eb:44:22:46:da:8c:78:c7:95:
         bc:cc:23:83:78:94:44:44:49:5a:40:ae:50:d8:bb:a2:61:ac:
         62:9e:20:35:4d:07:2b:42:66:b0:f8:be:dc:a1:d3:a4:a1:c3:
         1a:88:a4:aa:91:60:61:df:a4:53:59:10:54:fe:1e:01:1e:d3:
         ad:c1:01:c2:57:ee:d9:cb:45:4d:bf:46:96:86:76:44:88:fd:
         27:06:c1:b0
-----BEGIN CERTIFICATE-----
MIIDmTCCAoGgAwIBAgIBCDANBgkqhkiG9w0BAQsFADAmMSQwIgYDVQQDDBtvcGVu
c2hpZnQtc2lnbmVyQDE1NTE4OTQzNDYwHhcNMTkwMzA3MDAzMzE3WhcNMjAwMzA2
MDAzMzE3WjCBhDELMAkGA1UEBhMCSVQxDTALBgNVBAgMBFJvbWUxDTALBgNVBAcM
BFJvbWUxEjAQBgNVBAoMCUFDTUUgQ29ycDEgMB4GA1UEAwwXbmMtc2VydmVyLm15
cHJvamVjdC5zdmMxITAfBgkqhkiG9w0BCQEWEm5jLXNlcnZlckBhY21lLmNvbTCC
ASIwDQYJKoZIhvcNAQEBBQADggEPADCCAQoCggEBANDTXPIIDxURQJ7QPwtpoVhJ
wE6f2x1LLib4mUo/X17wK7DjK0E2SYHtYayycEWiTxHsdqxk+pFeq4wNA1z2zQU+
glmGAKH2I8WgHmoH3WVWilYggfQpBKeb+/tn6K1SfhPcRMgnnwWPHSCMC+wFzEuT
LeBtrkTZ2aijWV/aDwL6O/oDL1mgZydnsMaTDXJqUUH7L9ZM0fWOufmLCzvl5yKA
gkzSIgNj4EXLZWqmrjZQLQBQe4UKTnkV2XkNv2vGNKUVjDlbrz/YrLCwgYY9e2AE
JER+ftvwiq14hdEcvXJcOoREabiPxZNpVZaq+fLuY43ImzjRDMlCRdyxo2VK2oMC
AwEAAaNzMHEwHQYDVR0OBBYEFDYQTgiGibTL9D95PWHRBpqH0LyYMDgGA1UdIwQx
MC+hKqQoMCYxJDAiBgNVBAMMG29wZW5zaGlmdC1zaWduZXJAMTU1MTg5NDM0NoIB
ATAJBgNVHRMEAjAAMAsGA1UdDwQEAwIFoDANBgkqhkiG9w0BAQsFAAOCAQEAUWPY
Xdj+VRHiAvf4a9IPD55dSGE/hxgH1yXptU+qPB2Mhc1uO1OmqUGc+dbRmhIycJys
MYy45gcQy8MhcAbKMqMeBxmpV2G+AvdE+HfAfQHVf7GCHMF9/m4BBD5lHd9zdAz+
3l98ZVuP+kKvRmxZBacGJLgG2VYNWTTA91KDr2kN/o7198kKarFHSQmg1o7Vyk8X
8hCHeCUcIaG43Z3tqlwgrFLQUg0TBsK060QiRtqMeMeVvMwjg3iURERJWkCuUNi7
omGsYp4gNU0HK0JmsPi+3KHTpKHDGoikqpFgYd+kU1kQVP4eAR7TrcEBwlfu2ctF
Tb9GloZ2RIj9JwbBsA==
-----END CERTIFICATE-----
