Certificate:
    Data:
        Version: 3 (0x2)
        Serial Number: 9 (0x9)
    Signature Algorithm: sha256WithRSAEncryption
        Issuer: CN=openshift-signer@1551894346
        Validity
            Not Before: Mar  7 18:53:44 2019 GMT
            Not After : Mar  6 18:53:44 2020 GMT
        Subject: C=IT, ST=Rome, L=Rome, O=ACME Corp, CN=nc-server.myproject.svc
        Subject Public Key Info:
            Public Key Algorithm: rsaEncryption
                Public-Key: (2048 bit)
                Modulus:
                    00:c5:95:a0:15:81:8f:a4:61:74:d2:e1:6a:37:ec:
                    3e:bd:4f:79:1c:46:97:dd:e4:7f:bb:85:21:7e:f1:
                    0a:f3:d1:e6:97:fa:53:f1:ed:63:4f:e7:33:e3:f8:
                    6d:e7:c9:b6:b1:50:6a:dd:c2:38:12:5c:d5:8e:da:
                    ce:25:ad:88:88:9e:23:05:00:69:d6:a8:43:c6:07:
                    2e:54:dc:16:e9:16:07:fc:f0:90:c7:77:18:4f:17:
                    f9:d6:b9:54:1f:fd:0b:1f:fe:8c:31:93:0c:d5:ca:
                    24:fe:c5:0c:46:9d:a8:c1:3f:58:b2:e0:7d:9c:c4:
                    fe:4a:4a:57:44:4a:c8:91:49:51:90:50:93:e3:b4:
                    2e:bb:41:fe:39:0d:2f:c0:ed:7a:8a:d5:cb:1f:1e:
                    87:82:a5:86:fb:0b:08:d3:3b:da:56:c7:f5:e4:09:
                    b9:50:3b:a4:f9:d3:1a:ba:48:53:23:e0:e5:69:94:
                    c9:63:c1:14:50:07:33:79:df:83:05:02:ed:ec:f2:
                    b0:28:87:42:11:e5:f4:d2:57:47:d8:1e:e2:f4:a3:
                    15:1c:a1:77:21:3b:e2:17:01:9b:78:62:bd:b4:a7:
                    fd:83:48:bf:31:a9:e2:7c:dc:00:4e:98:b7:71:96:
                    ad:5c:9d:94:34:44:4e:83:f1:e0:eb:20:22:6e:35:
                    8a:4b
                Exponent: 65537 (0x10001)
        X509v3 extensions:
            X509v3 Subject Key Identifier: 
                29:05:C7:55:07:2D:CE:14:09:C4:BB:8F:B3:D6:7E:B9:D3:7E:10:64
            X509v3 Authority Key Identifier: 
                DirName:/CN=openshift-signer@1551894346
                serial:01

            X509v3 Basic Constraints: 
                CA:FALSE
            X509v3 Key Usage: 
                Digital Signature, Key Encipherment
            X509v3 Subject Alternative Name: 
                DNS:nc-server.myproject.svc, DNS:*.svc, DNS:nc-server-myproject.192.168.42.227.nip.io, DNS:*.nip.io, DNS:nc-server.nip.io
            Netscape Comment: 
                OpenSSL Generated Certificate
    Signature Algorithm: sha256WithRSAEncryption
         36:08:81:97:b6:52:1d:58:b7:38:34:2b:47:4c:5e:0a:cc:5d:
         06:69:52:5d:f6:51:bf:19:c5:f9:07:54:c3:9e:e7:e8:45:12:
         3c:9e:4f:68:89:df:69:3e:47:f9:26:78:cd:0f:d0:38:73:09:
         0f:9a:51:db:bd:62:db:0f:d0:ee:91:02:7b:3a:69:36:3b:89:
         04:f3:a0:6d:a2:0a:40:b2:6c:00:11:13:0b:c9:d6:d0:70:70:
         d3:42:13:97:98:5e:bc:0f:a0:a3:aa:10:23:f2:b8:6c:3b:36:
         06:b0:06:90:42:52:8b:26:77:bc:47:a4:2a:59:3c:af:9e:96:
         d0:a6:c2:a4:36:24:6f:69:39:e5:8d:3e:19:d1:a8:88:5b:b6:
         e6:08:b6:2e:a7:d8:b9:01:c5:9a:47:c1:59:92:fd:77:e4:3b:
         49:6d:c6:8e:e0:80:40:54:14:bd:14:da:e7:bb:39:55:5d:f7:
         e9:61:e5:47:e0:b0:22:b2:75:8e:47:6f:bd:df:d6:e0:1e:89:
         c7:1d:5e:1d:4d:a0:3c:fd:e3:8f:38:ee:3c:d3:bd:60:9e:7d:
         6c:c2:8d:c8:8d:a3:84:b6:38:50:99:80:17:d5:4d:90:9f:da:
         a4:50:ac:b8:17:87:6d:b0:2d:62:58:8c:73:91:77:f2:77:18:
         e1:4d:00:59
-----BEGIN CERTIFICATE-----
MIIEGTCCAwGgAwIBAgIBCTANBgkqhkiG9w0BAQsFADAmMSQwIgYDVQQDDBtvcGVu
c2hpZnQtc2lnbmVyQDE1NTE4OTQzNDYwHhcNMTkwMzA3MTg1MzQ0WhcNMjAwMzA2
MTg1MzQ0WjBhMQswCQYDVQQGEwJJVDENMAsGA1UECAwEUm9tZTENMAsGA1UEBwwE
Um9tZTESMBAGA1UECgwJQUNNRSBDb3JwMSAwHgYDVQQDDBduYy1zZXJ2ZXIubXlw
cm9qZWN0LnN2YzCCASIwDQYJKoZIhvcNAQEBBQADggEPADCCAQoCggEBAMWVoBWB
j6RhdNLhajfsPr1PeRxGl93kf7uFIX7xCvPR5pf6U/HtY0/nM+P4befJtrFQat3C
OBJc1Y7aziWtiIieIwUAadaoQ8YHLlTcFukWB/zwkMd3GE8X+da5VB/9Cx/+jDGT
DNXKJP7FDEadqME/WLLgfZzE/kpKV0RKyJFJUZBQk+O0LrtB/jkNL8DteorVyx8e
h4KlhvsLCNM72lbH9eQJuVA7pPnTGrpIUyPg5WmUyWPBFFAHM3nfgwUC7ezysCiH
QhHl9NJXR9ge4vSjFRyhdyE74hcBm3hivbSn/YNIvzGp4nzcAE6Yt3GWrVydlDRE
ToPx4OsgIm41iksCAwEAAaOCARUwggERMB0GA1UdDgQWBBQpBcdVBy3OFAnEu4+z
1n65034QZDA4BgNVHSMEMTAvoSqkKDAmMSQwIgYDVQQDDBtvcGVuc2hpZnQtc2ln
bmVyQDE1NTE4OTQzNDaCAQEwCQYDVR0TBAIwADALBgNVHQ8EBAMCBaAwcAYDVR0R
BGkwZ4IXbmMtc2VydmVyLm15cHJvamVjdC5zdmOCBSouc3ZjgiluYy1zZXJ2ZXIt
bXlwcm9qZWN0LjE5Mi4xNjguNDIuMjI3Lm5pcC5pb4IIKi5uaXAuaW+CEG5jLXNl
cnZlci5uaXAuaW8wLAYJYIZIAYb4QgENBB8WHU9wZW5TU0wgR2VuZXJhdGVkIENl
cnRpZmljYXRlMA0GCSqGSIb3DQEBCwUAA4IBAQA2CIGXtlIdWLc4NCtHTF4KzF0G
aVJd9lG/GcX5B1TDnufoRRI8nk9oid9pPkf5JnjND9A4cwkPmlHbvWLbD9DukQJ7
Omk2O4kE86BtogpAsmwAERMLydbQcHDTQhOXmF68D6CjqhAj8rhsOzYGsAaQQlKL
Jne8R6QqWTyvnpbQpsKkNiRvaTnljT4Z0aiIW7bmCLYup9i5AcWaR8FZkv135DtJ
bcaO4IBAVBS9FNrnuzlVXffpYeVH4LAisnWOR2+939bgHonHHV4dTaA8/eOPOO48
071gnn1swo3IjaOEtjhQmYAX1U2Qn9qkUKy4F4dtsC1iWIxzkXfydxjhTQBZ
-----END CERTIFICATE-----
